
main.elf:     file format elf32-avr

Sections:
Idx Name          Size      VMA       LMA       File off  Algn
  0 .data         00000004  00800100  000006a6  0000073a  2**0
                  CONTENTS, ALLOC, LOAD, DATA
  1 .text         000006a6  00000000  00000000  00000094  2**1
                  CONTENTS, ALLOC, LOAD, READONLY, CODE
  2 .bss          00000006  00800104  00800104  0000073e  2**0
                  ALLOC
  3 .comment      00000012  00000000  00000000  0000073e  2**0
                  CONTENTS, READONLY
  4 .note.gnu.avr.deviceinfo 00000040  00000000  00000000  00000750  2**2
                  CONTENTS, READONLY, OCTETS
  5 .debug_aranges 00000020  00000000  00000000  00000790  2**0
                  CONTENTS, READONLY, DEBUGGING, OCTETS
  6 .debug_info   0000078a  00000000  00000000  000007b0  2**0
                  CONTENTS, READONLY, DEBUGGING, OCTETS
  7 .debug_abbrev 000006c0  00000000  00000000  00000f3a  2**0
                  CONTENTS, READONLY, DEBUGGING, OCTETS
  8 .debug_line   00000170  00000000  00000000  000015fa  2**0
                  CONTENTS, READONLY, DEBUGGING, OCTETS
  9 .debug_frame  00000030  00000000  00000000  0000176c  2**2
                  CONTENTS, READONLY, DEBUGGING, OCTETS
 10 .debug_str    000002fb  00000000  00000000  0000179c  2**0
                  CONTENTS, READONLY, DEBUGGING, OCTETS
 11 .debug_line_str 00000076  00000000  00000000  00001a97  2**0
                  CONTENTS, READONLY, DEBUGGING, OCTETS
 12 .debug_loclists 0000006c  00000000  00000000  00001b0d  2**0
                  CONTENTS, READONLY, DEBUGGING, OCTETS
 13 .debug_rnglists 00000013  00000000  00000000  00001b79  2**0
                  CONTENTS, READONLY, DEBUGGING, OCTETS

Disassembly of section .text:

00000000 <__vectors>:
   0:	0c 94 34 00 	jmp	0x68	; 0x68 <__ctors_end>
   4:	0c 94 51 00 	jmp	0xa2	; 0xa2 <__bad_interrupt>
   8:	0c 94 51 00 	jmp	0xa2	; 0xa2 <__bad_interrupt>
   c:	0c 94 51 00 	jmp	0xa2	; 0xa2 <__bad_interrupt>
  10:	0c 94 51 00 	jmp	0xa2	; 0xa2 <__bad_interrupt>
  14:	0c 94 51 00 	jmp	0xa2	; 0xa2 <__bad_interrupt>
  18:	0c 94 51 00 	jmp	0xa2	; 0xa2 <__bad_interrupt>
  1c:	0c 94 51 00 	jmp	0xa2	; 0xa2 <__bad_interrupt>
  20:	0c 94 51 00 	jmp	0xa2	; 0xa2 <__bad_interrupt>
  24:	0c 94 51 00 	jmp	0xa2	; 0xa2 <__bad_interrupt>
  28:	0c 94 51 00 	jmp	0xa2	; 0xa2 <__bad_interrupt>
  2c:	0c 94 51 00 	jmp	0xa2	; 0xa2 <__bad_interrupt>
  30:	0c 94 51 00 	jmp	0xa2	; 0xa2 <__bad_interrupt>
  34:	0c 94 51 00 	jmp	0xa2	; 0xa2 <__bad_interrupt>
  38:	0c 94 51 00 	jmp	0xa2	; 0xa2 <__bad_interrupt>
  3c:	0c 94 51 00 	jmp	0xa2	; 0xa2 <__bad_interrupt>
  40:	0c 94 51 00 	jmp	0xa2	; 0xa2 <__bad_interrupt>
  44:	0c 94 51 00 	jmp	0xa2	; 0xa2 <__bad_interrupt>
  48:	0c 94 51 00 	jmp	0xa2	; 0xa2 <__bad_interrupt>
  4c:	0c 94 51 00 	jmp	0xa2	; 0xa2 <__bad_interrupt>
  50:	0c 94 51 00 	jmp	0xa2	; 0xa2 <__bad_interrupt>
  54:	0c 94 51 00 	jmp	0xa2	; 0xa2 <__bad_interrupt>
  58:	0c 94 51 00 	jmp	0xa2	; 0xa2 <__bad_interrupt>
  5c:	0c 94 51 00 	jmp	0xa2	; 0xa2 <__bad_interrupt>
  60:	0c 94 51 00 	jmp	0xa2	; 0xa2 <__bad_interrupt>
  64:	0c 94 51 00 	jmp	0xa2	; 0xa2 <__bad_interrupt>

00000068 <__ctors_end>:
  68:	11 24       	eor	r1, r1
  6a:	1f be       	out	0x3f, r1	; 63
  6c:	cf ef       	ldi	r28, 0xFF	; 255
  6e:	d8 e0       	ldi	r29, 0x08	; 8
  70:	de bf       	out	0x3e, r29	; 62
  72:	cd bf       	out	0x3d, r28	; 61

00000074 <__do_copy_data>:
  74:	11 e0       	ldi	r17, 0x01	; 1

00000076 <.Loc.1>:
  76:	a0 e0       	ldi	r26, 0x00	; 0

00000078 <.Loc.2>:
  78:	b1 e0       	ldi	r27, 0x01	; 1

0000007a <.Loc.3>:
  7a:	e6 ea       	ldi	r30, 0xA6	; 166

0000007c <.Loc.4>:
  7c:	f6 e0       	ldi	r31, 0x06	; 6

0000007e <.Loc.5>:
  7e:	02 c0       	rjmp	.+4      	; 0x84 <.L__do_copy_data_start>

00000080 <.L__do_copy_data_loop>:
  80:	05 90       	lpm	r0, Z+

00000082 <.Loc.7>:
  82:	0d 92       	st	X+, r0

00000084 <.L__do_copy_data_start>:
  84:	a4 30       	cpi	r26, 0x04	; 4

00000086 <.Loc.9>:
  86:	b1 07       	cpc	r27, r17

00000088 <.Loc.10>:
  88:	d9 f7       	brne	.-10     	; 0x80 <.L__do_copy_data_loop>

0000008a <__do_clear_bss>:
  8a:	21 e0       	ldi	r18, 0x01	; 1

0000008c <.Loc.1>:
  8c:	a4 e0       	ldi	r26, 0x04	; 4

0000008e <.Loc.2>:
  8e:	b1 e0       	ldi	r27, 0x01	; 1

00000090 <.Loc.3>:
  90:	01 c0       	rjmp	.+2      	; 0x94 <.Loc.5>

00000092 <.Loc.4>:
  92:	1d 92       	st	X+, r1

00000094 <.Loc.5>:
  94:	aa 30       	cpi	r26, 0x0A	; 10

00000096 <.Loc.6>:
  96:	b2 07       	cpc	r27, r18

00000098 <.Loc.7>:
  98:	e1 f7       	brne	.-8      	; 0x92 <.Loc.4>

0000009a <L0^A>:
  9a:	0e 94 53 00 	call	0xa6	; 0xa6 <main>
  9e:	0c 94 51 03 	jmp	0x6a2	; 0x6a2 <_exit>

000000a2 <__bad_interrupt>:
  a2:	0c 94 00 00 	jmp	0	; 0x0 <__vectors>

000000a6 <main>:
  /* UCSR0B &= ~_BV(RXEN0) & ~_BV(TXEN0); */
  /* LED_DDR |= 0xFF; */
  /* LED_PORT = 0xFF; */

  // setuping button port
    BTN_PORT |= _BV(BTN1 | BTN2 | BTN3);
  a6:	2f 9a       	sbi	0x05, 7	; 5

000000a8 <.Loc.3>:


  while(1) {
    if ((BTN_PIN & _BV(BTN1))) {
      printf("xd");
  a8:	c0 e0       	ldi	r28, 0x00	; 0
  aa:	d1 e0       	ldi	r29, 0x01	; 1

000000ac <.Loc.4>:
      LED_PORT = 0xFF;
  ac:	1f ef       	ldi	r17, 0xFF	; 255

000000ae <.L2>:
    if ((BTN_PIN & _BV(BTN1))) {
  ae:	1c 9b       	sbis	0x03, 4	; 3
  b0:	fe cf       	rjmp	.-4      	; 0xae <.L2>

000000b2 <.Loc.8>:
      printf("xd");
  b2:	df 93       	push	r29
  b4:	cf 93       	push	r28
  b6:	0e 94 74 00 	call	0xe8	; 0xe8 <printf>

000000ba <.LVL0>:
      LED_PORT = 0xFF;
  ba:	1b b9       	out	0x0b, r17	; 11

000000bc <.LBB6>:
	#else
		//round up by default
		__ticks_dc = (uint32_t)(__builtin_ceil(__builtin_fabs(__tmp)));
	#endif

	__builtin_avr_delay_cycles(__ticks_dc);
  bc:	9f ef       	ldi	r25, 0xFF	; 255
  be:	23 ed       	ldi	r18, 0xD3	; 211
  c0:	80 e3       	ldi	r24, 0x30	; 48

000000c2 <.L1^B1>:
  c2:	91 50       	subi	r25, 0x01	; 1
  c4:	20 40       	sbci	r18, 0x00	; 0
  c6:	80 40       	sbci	r24, 0x00	; 0
  c8:	e1 f7       	brne	.-8      	; 0xc2 <.L1^B1>
  ca:	00 c0       	rjmp	.+0      	; 0xcc <L0^A>

000000cc <L0^A>:
	...

000000ce <.LBE6>:
      _delay_ms(1000);
      LED_PORT = 0;
  ce:	1b b8       	out	0x0b, r1	; 11

000000d0 <.LBB8>:
  d0:	9f ef       	ldi	r25, 0xFF	; 255
  d2:	23 ed       	ldi	r18, 0xD3	; 211
  d4:	80 e3       	ldi	r24, 0x30	; 48

000000d6 <.L1^B2>:
  d6:	91 50       	subi	r25, 0x01	; 1
  d8:	20 40       	sbci	r18, 0x00	; 0
  da:	80 40       	sbci	r24, 0x00	; 0
  dc:	e1 f7       	brne	.-8      	; 0xd6 <.L1^B2>
  de:	00 c0       	rjmp	.+0      	; 0xe0 <L0^A>

000000e0 <L0^A>:
	...

000000e2 <.Loc.30>:
	}
	else
		__ticks = (uint16_t)__tmp;
	_delay_loop_2(__ticks);
#endif
}
  e2:	0f 90       	pop	r0
  e4:	0f 90       	pop	r0
  e6:	e3 cf       	rjmp	.-58     	; 0xae <.L2>

000000e8 <printf>:
  e8:	a0 e0       	ldi	r26, 0x00	; 0
  ea:	b0 e0       	ldi	r27, 0x00	; 0
  ec:	ea e7       	ldi	r30, 0x7A	; 122
  ee:	f0 e0       	ldi	r31, 0x00	; 0
  f0:	0c 94 2a 03 	jmp	0x654	; 0x654 <.Loc.16>

000000f4 <.L1^B1>:
  f4:	ae 01       	movw	r20, r28
  f6:	4b 5f       	subi	r20, 0xFB	; 251
  f8:	5f 4f       	sbci	r21, 0xFF	; 255
  fa:	fa 01       	movw	r30, r20
  fc:	61 91       	ld	r22, Z+
  fe:	71 91       	ld	r23, Z+
 100:	af 01       	movw	r20, r30
 102:	80 91 06 01 	lds	r24, 0x0106	; 0x800106 <__iob+0x2>
 106:	90 91 07 01 	lds	r25, 0x0107	; 0x800107 <__iob+0x3>
 10a:	0e 94 8a 00 	call	0x114	; 0x114 <vfprintf>
 10e:	e2 e0       	ldi	r30, 0x02	; 2
 110:	0c 94 46 03 	jmp	0x68c	; 0x68c <.Loc.16>

00000114 <vfprintf>:
 114:	ab e0       	ldi	r26, 0x0B	; 11
 116:	b0 e0       	ldi	r27, 0x00	; 0
 118:	e0 e9       	ldi	r30, 0x90	; 144
 11a:	f0 e0       	ldi	r31, 0x00	; 0
 11c:	0c 94 1b 03 	jmp	0x636	; 0x636 <.Loc.1>

00000120 <.L1^B1>:
 120:	6c 01       	movw	r12, r24
 122:	7b 01       	movw	r14, r22
 124:	8a 01       	movw	r16, r20
 126:	fc 01       	movw	r30, r24
 128:	17 82       	std	Z+7, r1	; 0x07
 12a:	16 82       	std	Z+6, r1	; 0x06
 12c:	83 81       	ldd	r24, Z+3	; 0x03
 12e:	81 ff       	sbrs	r24, 1
 130:	da c1       	rjmp	.+948    	; 0x4e6 <.L81>
 132:	9a e0       	ldi	r25, 0x0A	; 10
 134:	49 2e       	mov	r4, r25

00000136 <.L3>:
 136:	f6 01       	movw	r30, r12
 138:	23 81       	ldd	r18, Z+3	; 0x03
 13a:	f7 01       	movw	r30, r14
 13c:	23 fd       	sbrc	r18, 3
 13e:	85 91       	lpm	r24, Z+
 140:	23 ff       	sbrs	r18, 3
 142:	81 91       	ld	r24, Z+
 144:	7f 01       	movw	r14, r30
 146:	81 15       	cp	r24, r1
 148:	09 f4       	brne	.+2      	; 0x14c <L0^A+0x2>

0000014a <L0^A>:
 14a:	1f c1       	rjmp	.+574    	; 0x38a <.L4>
 14c:	85 32       	cpi	r24, 0x25	; 37
 14e:	39 f4       	brne	.+14     	; 0x15e <.L5>
 150:	23 fd       	sbrc	r18, 3
 152:	95 91       	lpm	r25, Z+
 154:	23 ff       	sbrs	r18, 3
 156:	91 91       	ld	r25, Z+
 158:	7f 01       	movw	r14, r30
 15a:	95 32       	cpi	r25, 0x25	; 37
 15c:	29 f4       	brne	.+10     	; 0x168 <.L82>

0000015e <.L5>:
 15e:	b6 01       	movw	r22, r12
 160:	90 e0       	ldi	r25, 0x00	; 0
 162:	0e 94 8c 02 	call	0x518	; 0x518 <fputc>
 166:	e7 cf       	rjmp	.-50     	; 0x136 <.L3>

00000168 <.L82>:
 168:	30 e0       	ldi	r19, 0x00	; 0
 16a:	61 2c       	mov	r6, r1
 16c:	51 2c       	mov	r5, r1
 16e:	71 2c       	mov	r7, r1

00000170 <.L6>:
 170:	f0 e2       	ldi	r31, 0x20	; 32
 172:	7f 16       	cp	r7, r31
 174:	40 f5       	brcc	.+80     	; 0x1c6 <.L8>
 176:	9b 32       	cpi	r25, 0x2B	; 43
 178:	d9 f0       	breq	.+54     	; 0x1b0 <.L9>
 17a:	58 f4       	brcc	.+22     	; 0x192 <.L10>
 17c:	90 32       	cpi	r25, 0x20	; 32
 17e:	d1 f0       	breq	.+52     	; 0x1b4 <.L11>
 180:	93 32       	cpi	r25, 0x23	; 35
 182:	f1 f0       	breq	.+60     	; 0x1c0 <.L12>

00000184 <.L13>:
 184:	9e 32       	cpi	r25, 0x2E	; 46
 186:	99 f5       	brne	.+102    	; 0x1ee <.L19>
 188:	76 fc       	sbrc	r7, 6
 18a:	ff c0       	rjmp	.+510    	; 0x38a <.L4>
 18c:	68 94       	set
 18e:	76 f8       	bld	r7, 6
 190:	06 c0       	rjmp	.+12     	; 0x19e <.L16>

00000192 <.L10>:
 192:	9d 32       	cpi	r25, 0x2D	; 45
 194:	91 f0       	breq	.+36     	; 0x1ba <.L14>
 196:	90 33       	cpi	r25, 0x30	; 48
 198:	c1 f4       	brne	.+48     	; 0x1ca <.L15>
 19a:	68 94       	set
 19c:	70 f8       	bld	r7, 0

0000019e <.L16>:
 19e:	f7 01       	movw	r30, r14
 1a0:	23 fd       	sbrc	r18, 3
 1a2:	95 91       	lpm	r25, Z+
 1a4:	23 ff       	sbrs	r18, 3
 1a6:	91 91       	ld	r25, Z+
 1a8:	7f 01       	movw	r14, r30
 1aa:	91 11       	cpse	r25, r1
 1ac:	e1 cf       	rjmp	.-62     	; 0x170 <.L6>
 1ae:	29 c0       	rjmp	.+82     	; 0x202 <.L17>

000001b0 <.L9>:
 1b0:	68 94       	set
 1b2:	71 f8       	bld	r7, 1

000001b4 <.L11>:
 1b4:	68 94       	set
 1b6:	72 f8       	bld	r7, 2
 1b8:	f2 cf       	rjmp	.-28     	; 0x19e <.L16>

000001ba <.L14>:
 1ba:	68 94       	set
 1bc:	73 f8       	bld	r7, 3
 1be:	ef cf       	rjmp	.-34     	; 0x19e <.L16>

000001c0 <.L12>:
 1c0:	68 94       	set
 1c2:	74 f8       	bld	r7, 4
 1c4:	ec cf       	rjmp	.-40     	; 0x19e <.L16>

000001c6 <.L8>:
 1c6:	77 fc       	sbrc	r7, 7
 1c8:	1c c0       	rjmp	.+56     	; 0x202 <.L17>

000001ca <.L15>:
 1ca:	80 ed       	ldi	r24, 0xD0	; 208
 1cc:	89 0f       	add	r24, r25
 1ce:	8a 30       	cpi	r24, 0x0A	; 10
 1d0:	c8 f6       	brcc	.-78     	; 0x184 <.L13>
 1d2:	76 fe       	sbrs	r7, 6
 1d4:	05 c0       	rjmp	.+10     	; 0x1e0 <.L18>
 1d6:	64 9c       	mul	r6, r4
 1d8:	80 0d       	add	r24, r0
 1da:	11 24       	eor	r1, r1
 1dc:	68 2e       	mov	r6, r24
 1de:	df cf       	rjmp	.-66     	; 0x19e <.L16>

000001e0 <.L18>:
 1e0:	54 9c       	mul	r5, r4
 1e2:	80 0d       	add	r24, r0
 1e4:	11 24       	eor	r1, r1
 1e6:	58 2e       	mov	r5, r24
 1e8:	68 94       	set
 1ea:	75 f8       	bld	r7, 5
 1ec:	d8 cf       	rjmp	.-80     	; 0x19e <.L16>

000001ee <.L19>:
 1ee:	9c 36       	cpi	r25, 0x6C	; 108
 1f0:	19 f4       	brne	.+6      	; 0x1f8 <.L20>
 1f2:	68 94       	set
 1f4:	77 f8       	bld	r7, 7
 1f6:	d3 cf       	rjmp	.-90     	; 0x19e <.L16>

000001f8 <.L20>:
 1f8:	9c 34       	cpi	r25, 0x4C	; 76
 1fa:	09 f4       	brne	.+2      	; 0x1fe <.Lname86>

000001fc <L0^A>:
 1fc:	4b c0       	rjmp	.+150    	; 0x294 <.L83>
 1fe:	98 36       	cpi	r25, 0x68	; 104
 200:	71 f2       	breq	.-100    	; 0x19e <.L16>

00000202 <.L17>:
 202:	89 2f       	mov	r24, r25
 204:	8f 7d       	andi	r24, 0xDF	; 223
 206:	85 54       	subi	r24, 0x45	; 69
 208:	83 30       	cpi	r24, 0x03	; 3
 20a:	08 f4       	brcc	.+2      	; 0x20e <L0^A+0x2>

0000020c <L0^A>:
 20c:	45 c0       	rjmp	.+138    	; 0x298 <.L21>
 20e:	93 36       	cpi	r25, 0x63	; 99
 210:	09 f4       	brne	.+2      	; 0x214 <L0^A+0x2>

00000212 <L0^A>:
 212:	66 c0       	rjmp	.+204    	; 0x2e0 <.L22>
 214:	93 37       	cpi	r25, 0x73	; 115
 216:	09 f4       	brne	.+2      	; 0x21a <L0^A+0x2>

00000218 <L0^A>:
 218:	69 c0       	rjmp	.+210    	; 0x2ec <.L23>
 21a:	93 35       	cpi	r25, 0x53	; 83
 21c:	09 f4       	brne	.+2      	; 0x220 <L0^A+0x2>

0000021e <L0^A>:
 21e:	75 c0       	rjmp	.+234    	; 0x30a <.L24>
 220:	94 36       	cpi	r25, 0x64	; 100
 222:	19 f0       	breq	.+6      	; 0x22a <.L39>
 224:	99 36       	cpi	r25, 0x69	; 105
 226:	09 f0       	breq	.+2      	; 0x22a <.L39>

00000228 <L0^A>:
 228:	9f c0       	rjmp	.+318    	; 0x368 <.L40>

0000022a <.L39>:
 22a:	f8 01       	movw	r30, r16
 22c:	77 fe       	sbrs	r7, 7
 22e:	95 c0       	rjmp	.+298    	; 0x35a <.L41>
 230:	61 91       	ld	r22, Z+
 232:	71 91       	ld	r23, Z+
 234:	81 91       	ld	r24, Z+
 236:	91 91       	ld	r25, Z+

00000238 <.L128>:
 238:	8f 01       	movw	r16, r30
 23a:	27 2d       	mov	r18, r7
 23c:	2f 76       	andi	r18, 0x6F	; 111
 23e:	72 2e       	mov	r7, r18
 240:	97 ff       	sbrs	r25, 7
 242:	09 c0       	rjmp	.+18     	; 0x256 <.L43>
 244:	90 95       	com	r25
 246:	80 95       	com	r24
 248:	70 95       	com	r23
 24a:	61 95       	neg	r22
 24c:	7f 4f       	sbci	r23, 0xFF	; 255
 24e:	8f 4f       	sbci	r24, 0xFF	; 255
 250:	9f 4f       	sbci	r25, 0xFF	; 255
 252:	68 94       	set
 254:	77 f8       	bld	r7, 7

00000256 <.L43>:
 256:	2a e0       	ldi	r18, 0x0A	; 10
 258:	30 e0       	ldi	r19, 0x00	; 0
 25a:	ae 01       	movw	r20, r28
 25c:	4f 5f       	subi	r20, 0xFF	; 255
 25e:	5f 4f       	sbci	r21, 0xFF	; 255
 260:	5a 01       	movw	r10, r20
 262:	0e 94 bc 02 	call	0x578	; 0x578 <__ultoa_invert>
 266:	8a 19       	sub	r24, r10
 268:	a8 2e       	mov	r10, r24

0000026a <.L44>:
 26a:	76 fe       	sbrs	r7, 6
 26c:	c5 c0       	rjmp	.+394    	; 0x3f8 <.L54>
 26e:	87 2d       	mov	r24, r7
 270:	8e 7f       	andi	r24, 0xFE	; 254
 272:	a6 14       	cp	r10, r6
 274:	08 f0       	brcs	.+2      	; 0x278 <L0^A+0x2>

00000276 <L0^A>:
 276:	bf c0       	rjmp	.+382    	; 0x3f6 <.L89>
 278:	74 fe       	sbrs	r7, 4
 27a:	12 c1       	rjmp	.+548    	; 0x4a0 <.L90>
 27c:	72 fc       	sbrc	r7, 2
 27e:	06 c1       	rjmp	.+524    	; 0x48c <.L91>
 280:	f7 2d       	mov	r31, r7
 282:	fe 7e       	andi	r31, 0xEE	; 238
 284:	7f 2e       	mov	r7, r31
 286:	b6 2c       	mov	r11, r6

00000288 <.L55>:
 288:	87 2d       	mov	r24, r7
 28a:	86 78       	andi	r24, 0x86	; 134
 28c:	81 15       	cp	r24, r1
 28e:	09 f4       	brne	.+2      	; 0x292 <L0^A+0x2>

00000290 <L0^A>:
 290:	c0 c0       	rjmp	.+384    	; 0x412 <.L58>
 292:	01 c1       	rjmp	.+514    	; 0x496 <.L130>

00000294 <.L83>:
 294:	31 e0       	ldi	r19, 0x01	; 1
 296:	83 cf       	rjmp	.-250    	; 0x19e <.L16>

00000298 <.L21>:
 298:	31 15       	cp	r19, r1
 29a:	f9 f0       	breq	.+62     	; 0x2da <.L26>
 29c:	08 5f       	subi	r16, 0xF8	; 248
 29e:	1f 4f       	sbci	r17, 0xFF	; 255

000002a0 <.L27>:
 2a0:	8f e3       	ldi	r24, 0x3F	; 63
 2a2:	89 83       	std	Y+1, r24	; 0x01

000002a4 <.L127>:
 2a4:	88 24       	eor	r8, r8
 2a6:	83 94       	inc	r8
 2a8:	91 2c       	mov	r9, r1
 2aa:	ae 01       	movw	r20, r28
 2ac:	4f 5f       	subi	r20, 0xFF	; 255
 2ae:	5f 4f       	sbci	r21, 0xFF	; 255
 2b0:	5a 01       	movw	r10, r20

000002b2 <.L28>:
 2b2:	e8 94       	clt
 2b4:	77 f8       	bld	r7, 7

000002b6 <.L30>:
 2b6:	73 fc       	sbrc	r7, 3
 2b8:	03 c0       	rjmp	.+6      	; 0x2c0 <.L33>

000002ba <.L32>:
 2ba:	85 14       	cp	r8, r5
 2bc:	91 04       	cpc	r9, r1
 2be:	b0 f1       	brcs	.+108    	; 0x32c <.L34>

000002c0 <.L33>:
 2c0:	81 14       	cp	r8, r1
 2c2:	91 04       	cpc	r9, r1
 2c4:	d1 f5       	brne	.+116    	; 0x33a <.L37>

000002c6 <.L38>:
 2c6:	51 14       	cp	r5, r1
 2c8:	09 f4       	brne	.+2      	; 0x2cc <L0^A+0x2>

000002ca <L0^A>:
 2ca:	35 cf       	rjmp	.-406    	; 0x136 <.L3>
 2cc:	b6 01       	movw	r22, r12
 2ce:	80 e2       	ldi	r24, 0x20	; 32
 2d0:	90 e0       	ldi	r25, 0x00	; 0
 2d2:	0e 94 8c 02 	call	0x518	; 0x518 <fputc>
 2d6:	5a 94       	dec	r5
 2d8:	f6 cf       	rjmp	.-20     	; 0x2c6 <.L38>

000002da <.L26>:
 2da:	0c 5f       	subi	r16, 0xFC	; 252
 2dc:	1f 4f       	sbci	r17, 0xFF	; 255
 2de:	e0 cf       	rjmp	.-64     	; 0x2a0 <.L27>

000002e0 <.L22>:
 2e0:	f8 01       	movw	r30, r16
 2e2:	80 81       	ld	r24, Z
 2e4:	89 83       	std	Y+1, r24	; 0x01
 2e6:	0e 5f       	subi	r16, 0xFE	; 254
 2e8:	1f 4f       	sbci	r17, 0xFF	; 255
 2ea:	dc cf       	rjmp	.-72     	; 0x2a4 <.L127>

000002ec <.L23>:
 2ec:	f8 01       	movw	r30, r16
 2ee:	a1 90       	ld	r10, Z+
 2f0:	b1 90       	ld	r11, Z+
 2f2:	8f 01       	movw	r16, r30
 2f4:	66 2d       	mov	r22, r6
 2f6:	70 e0       	ldi	r23, 0x00	; 0
 2f8:	76 fc       	sbrc	r7, 6
 2fa:	02 c0       	rjmp	.+4      	; 0x300 <.L29>
 2fc:	6f ef       	ldi	r22, 0xFF	; 255
 2fe:	7f ef       	ldi	r23, 0xFF	; 255

00000300 <.L29>:
 300:	c5 01       	movw	r24, r10
 302:	0e 94 81 02 	call	0x502	; 0x502 <strnlen>
 306:	4c 01       	movw	r8, r24
 308:	d4 cf       	rjmp	.-88     	; 0x2b2 <.L28>

0000030a <.L24>:
 30a:	f8 01       	movw	r30, r16
 30c:	a1 90       	ld	r10, Z+
 30e:	b1 90       	ld	r11, Z+
 310:	8f 01       	movw	r16, r30
 312:	66 2d       	mov	r22, r6
 314:	70 e0       	ldi	r23, 0x00	; 0
 316:	76 fc       	sbrc	r7, 6
 318:	02 c0       	rjmp	.+4      	; 0x31e <.L31>
 31a:	6f ef       	ldi	r22, 0xFF	; 255
 31c:	7f ef       	ldi	r23, 0xFF	; 255

0000031e <.L31>:
 31e:	c5 01       	movw	r24, r10
 320:	0e 94 76 02 	call	0x4ec	; 0x4ec <strnlen_P>
 324:	4c 01       	movw	r8, r24
 326:	68 94       	set
 328:	77 f8       	bld	r7, 7
 32a:	c5 cf       	rjmp	.-118    	; 0x2b6 <.L30>

0000032c <.L34>:
 32c:	b6 01       	movw	r22, r12
 32e:	80 e2       	ldi	r24, 0x20	; 32
 330:	90 e0       	ldi	r25, 0x00	; 0
 332:	0e 94 8c 02 	call	0x518	; 0x518 <fputc>
 336:	5a 94       	dec	r5
 338:	c0 cf       	rjmp	.-128    	; 0x2ba <.L32>

0000033a <.L37>:
 33a:	f5 01       	movw	r30, r10
 33c:	77 fc       	sbrc	r7, 7
 33e:	85 91       	lpm	r24, Z+
 340:	77 fe       	sbrs	r7, 7
 342:	81 91       	ld	r24, Z+
 344:	5f 01       	movw	r10, r30
 346:	b6 01       	movw	r22, r12
 348:	90 e0       	ldi	r25, 0x00	; 0
 34a:	0e 94 8c 02 	call	0x518	; 0x518 <fputc>
 34e:	51 10       	cpse	r5, r1
 350:	5a 94       	dec	r5
 352:	f1 e0       	ldi	r31, 0x01	; 1
 354:	8f 1a       	sub	r8, r31
 356:	91 08       	sbc	r9, r1
 358:	b3 cf       	rjmp	.-154    	; 0x2c0 <.L33>

0000035a <.L41>:
 35a:	61 91       	ld	r22, Z+
 35c:	71 91       	ld	r23, Z+
 35e:	07 2e       	mov	r0, r23
 360:	00 0c       	add	r0, r0
 362:	88 0b       	sbc	r24, r24
 364:	99 0b       	sbc	r25, r25
 366:	68 cf       	rjmp	.-304    	; 0x238 <.L128>

00000368 <.L40>:
 368:	37 2c       	mov	r3, r7
 36a:	e8 94       	clt
 36c:	34 f8       	bld	r3, 4
 36e:	2a e0       	ldi	r18, 0x0A	; 10
 370:	30 e0       	ldi	r19, 0x00	; 0
 372:	95 37       	cpi	r25, 0x75	; 117
 374:	39 f1       	breq	.+78     	; 0x3c4 <.L46>
 376:	57 2d       	mov	r21, r7
 378:	59 7f       	andi	r21, 0xF9	; 249
 37a:	35 2e       	mov	r3, r21
 37c:	90 37       	cpi	r25, 0x70	; 112
 37e:	99 f0       	breq	.+38     	; 0x3a6 <.L47>
 380:	58 f4       	brcc	.+22     	; 0x398 <.L48>
 382:	98 35       	cpi	r25, 0x58	; 88
 384:	a9 f0       	breq	.+42     	; 0x3b0 <.L49>
 386:	9f 36       	cpi	r25, 0x6F	; 111
 388:	d9 f0       	breq	.+54     	; 0x3c0 <.L86>

0000038a <.L4>:
 38a:	f6 01       	movw	r30, r12
 38c:	86 81       	ldd	r24, Z+6	; 0x06
 38e:	97 81       	ldd	r25, Z+7	; 0x07

00000390 <.L1>:
 390:	2b 96       	adiw	r28, 0x0b	; 11
 392:	e1 e1       	ldi	r30, 0x11	; 17
 394:	0c 94 37 03 	jmp	0x66e	; 0x66e <.Loc.1>

00000398 <.L48>:
 398:	98 37       	cpi	r25, 0x78	; 120
 39a:	b9 f7       	brne	.-18     	; 0x38a <.L4>
 39c:	74 fc       	sbrc	r7, 4
 39e:	05 c0       	rjmp	.+10     	; 0x3aa <.L51>

000003a0 <.L87>:
 3a0:	20 e1       	ldi	r18, 0x10	; 16
 3a2:	30 e0       	ldi	r19, 0x00	; 0
 3a4:	0f c0       	rjmp	.+30     	; 0x3c4 <.L46>

000003a6 <.L47>:
 3a6:	68 94       	set
 3a8:	34 f8       	bld	r3, 4

000003aa <.L51>:
 3aa:	68 94       	set
 3ac:	32 f8       	bld	r3, 2
 3ae:	f8 cf       	rjmp	.-16     	; 0x3a0 <.L87>

000003b0 <.L49>:
 3b0:	74 fe       	sbrs	r7, 4
 3b2:	03 c0       	rjmp	.+6      	; 0x3ba <.L88>
 3b4:	87 2d       	mov	r24, r7
 3b6:	86 60       	ori	r24, 0x06	; 6
 3b8:	38 2e       	mov	r3, r24

000003ba <.L88>:
 3ba:	20 e1       	ldi	r18, 0x10	; 16
 3bc:	32 e0       	ldi	r19, 0x02	; 2
 3be:	02 c0       	rjmp	.+4      	; 0x3c4 <.L46>

000003c0 <.L86>:
 3c0:	28 e0       	ldi	r18, 0x08	; 8
 3c2:	30 e0       	ldi	r19, 0x00	; 0

000003c4 <.L46>:
 3c4:	f8 01       	movw	r30, r16
 3c6:	37 fe       	sbrs	r3, 7
 3c8:	11 c0       	rjmp	.+34     	; 0x3ec <.L52>
 3ca:	61 91       	ld	r22, Z+
 3cc:	71 91       	ld	r23, Z+
 3ce:	81 91       	ld	r24, Z+
 3d0:	91 91       	ld	r25, Z+

000003d2 <.L129>:
 3d2:	8f 01       	movw	r16, r30
 3d4:	fe 01       	movw	r30, r28
 3d6:	31 96       	adiw	r30, 0x01	; 1
 3d8:	5f 01       	movw	r10, r30
 3da:	af 01       	movw	r20, r30
 3dc:	0e 94 bc 02 	call	0x578	; 0x578 <__ultoa_invert>
 3e0:	8a 19       	sub	r24, r10
 3e2:	a8 2e       	mov	r10, r24
 3e4:	73 2c       	mov	r7, r3
 3e6:	e8 94       	clt
 3e8:	77 f8       	bld	r7, 7
 3ea:	3f cf       	rjmp	.-386    	; 0x26a <.L44>

000003ec <.L52>:
 3ec:	61 91       	ld	r22, Z+
 3ee:	71 91       	ld	r23, Z+
 3f0:	80 e0       	ldi	r24, 0x00	; 0
 3f2:	90 e0       	ldi	r25, 0x00	; 0
 3f4:	ee cf       	rjmp	.-36     	; 0x3d2 <.L129>

000003f6 <.L89>:
 3f6:	78 2e       	mov	r7, r24

000003f8 <.L54>:
 3f8:	ba 2c       	mov	r11, r10
 3fa:	74 fe       	sbrs	r7, 4
 3fc:	45 cf       	rjmp	.-374    	; 0x288 <.L55>

000003fe <.L56>:
 3fe:	fe 01       	movw	r30, r28
 400:	ea 0d       	add	r30, r10
 402:	f1 1d       	adc	r31, r1
 404:	80 81       	ld	r24, Z
 406:	80 33       	cpi	r24, 0x30	; 48
 408:	09 f0       	breq	.+2      	; 0x40c <L0^A+0x2>

0000040a <L0^A>:
 40a:	43 c0       	rjmp	.+134    	; 0x492 <.L57>
 40c:	27 2d       	mov	r18, r7
 40e:	29 7e       	andi	r18, 0xE9	; 233
 410:	72 2e       	mov	r7, r18

00000412 <.L58>:
 412:	73 fc       	sbrc	r7, 3
 414:	0e c0       	rjmp	.+28     	; 0x432 <.L60>
 416:	70 fe       	sbrs	r7, 0
 418:	4f c0       	rjmp	.+158    	; 0x4b8 <.L93>
 41a:	6a 2c       	mov	r6, r10
 41c:	b5 14       	cp	r11, r5
 41e:	18 f4       	brcc	.+6      	; 0x426 <.L80>
 420:	65 0c       	add	r6, r5
 422:	6b 18       	sub	r6, r11
 424:	b5 2c       	mov	r11, r5

00000426 <.L80>:
 426:	85 2d       	mov	r24, r5
 428:	8b 19       	sub	r24, r11
 42a:	5b 14       	cp	r5, r11
 42c:	08 f4       	brcc	.+2      	; 0x430 <.L65>
 42e:	80 e0       	ldi	r24, 0x00	; 0

00000430 <.L65>:
 430:	b8 0e       	add	r11, r24

00000432 <.L60>:
 432:	b5 14       	cp	r11, r5
 434:	08 f0       	brcs	.+2      	; 0x438 <L0^A+0x2>

00000436 <L0^A>:
 436:	42 c0       	rjmp	.+132    	; 0x4bc <.L95>
 438:	5b 18       	sub	r5, r11

0000043a <.L67>:
 43a:	74 fe       	sbrs	r7, 4
 43c:	41 c0       	rjmp	.+130    	; 0x4c0 <.L68>
 43e:	b6 01       	movw	r22, r12
 440:	80 e3       	ldi	r24, 0x30	; 48
 442:	90 e0       	ldi	r25, 0x00	; 0
 444:	0e 94 8c 02 	call	0x518	; 0x518 <fputc>
 448:	72 fe       	sbrs	r7, 2
 44a:	09 c0       	rjmp	.+18     	; 0x45e <.L75>
 44c:	88 e5       	ldi	r24, 0x58	; 88
 44e:	90 e0       	ldi	r25, 0x00	; 0
 450:	71 fc       	sbrc	r7, 1
 452:	02 c0       	rjmp	.+4      	; 0x458 <.L71>
 454:	88 e7       	ldi	r24, 0x78	; 120
 456:	90 e0       	ldi	r25, 0x00	; 0

00000458 <.L71>:
 458:	b6 01       	movw	r22, r12

0000045a <.L131>:
 45a:	0e 94 8c 02 	call	0x518	; 0x518 <fputc>

0000045e <.L75>:
 45e:	a6 14       	cp	r10, r6
 460:	d8 f1       	brcs	.+118    	; 0x4d8 <.L76>
 462:	aa 94       	dec	r10
 464:	b1 2c       	mov	r11, r1
 466:	4f ef       	ldi	r20, 0xFF	; 255
 468:	a4 1a       	sub	r10, r20
 46a:	b4 0a       	sbc	r11, r20
 46c:	ce 01       	movw	r24, r28
 46e:	01 96       	adiw	r24, 0x01	; 1
 470:	3c 01       	movw	r6, r24
 472:	a8 0e       	add	r10, r24
 474:	b9 1e       	adc	r11, r25

00000476 <.L77>:
 476:	f5 01       	movw	r30, r10
 478:	82 91       	ld	r24, -Z
 47a:	5f 01       	movw	r10, r30
 47c:	b6 01       	movw	r22, r12
 47e:	90 e0       	ldi	r25, 0x00	; 0
 480:	0e 94 8c 02 	call	0x518	; 0x518 <fputc>
 484:	6a 14       	cp	r6, r10
 486:	7b 04       	cpc	r7, r11
 488:	b1 f7       	brne	.-20     	; 0x476 <.L77>
 48a:	1d cf       	rjmp	.-454    	; 0x2c6 <.L38>

0000048c <.L91>:
 48c:	b6 2c       	mov	r11, r6
 48e:	78 2e       	mov	r7, r24
 490:	b6 cf       	rjmp	.-148    	; 0x3fe <.L56>

00000492 <.L57>:
 492:	72 fc       	sbrc	r7, 2
 494:	02 c0       	rjmp	.+4      	; 0x49a <.L59>

00000496 <.L130>:
 496:	b3 94       	inc	r11
 498:	bc cf       	rjmp	.-136    	; 0x412 <.L58>

0000049a <.L59>:
 49a:	b3 94       	inc	r11
 49c:	b3 94       	inc	r11
 49e:	b9 cf       	rjmp	.-142    	; 0x412 <.L58>

000004a0 <.L90>:
 4a0:	b6 2c       	mov	r11, r6
 4a2:	78 2e       	mov	r7, r24
 4a4:	f1 ce       	rjmp	.-542    	; 0x288 <.L55>

000004a6 <.L63>:
 4a6:	b6 01       	movw	r22, r12
 4a8:	80 e2       	ldi	r24, 0x20	; 32
 4aa:	90 e0       	ldi	r25, 0x00	; 0
 4ac:	0e 94 8c 02 	call	0x518	; 0x518 <fputc>
 4b0:	33 94       	inc	r3

000004b2 <.L61>:
 4b2:	35 14       	cp	r3, r5
 4b4:	c0 f3       	brcs	.-16     	; 0x4a6 <.L63>
 4b6:	b7 cf       	rjmp	.-146    	; 0x426 <.L80>

000004b8 <.L93>:
 4b8:	3b 2c       	mov	r3, r11
 4ba:	fb cf       	rjmp	.-10     	; 0x4b2 <.L61>

000004bc <.L95>:
 4bc:	51 2c       	mov	r5, r1
 4be:	bd cf       	rjmp	.-134    	; 0x43a <.L67>

000004c0 <.L68>:
 4c0:	87 2d       	mov	r24, r7
 4c2:	86 78       	andi	r24, 0x86	; 134
 4c4:	81 15       	cp	r24, r1
 4c6:	59 f2       	breq	.-106    	; 0x45e <.L75>
 4c8:	80 e2       	ldi	r24, 0x20	; 32
 4ca:	71 fc       	sbrc	r7, 1
 4cc:	8b e2       	ldi	r24, 0x2B	; 43
 4ce:	77 fc       	sbrc	r7, 7
 4d0:	8d e2       	ldi	r24, 0x2D	; 45
 4d2:	b6 01       	movw	r22, r12
 4d4:	90 e0       	ldi	r25, 0x00	; 0
 4d6:	c1 cf       	rjmp	.-126    	; 0x45a <.L131>

000004d8 <.L76>:
 4d8:	b6 01       	movw	r22, r12
 4da:	80 e3       	ldi	r24, 0x30	; 48
 4dc:	90 e0       	ldi	r25, 0x00	; 0
 4de:	0e 94 8c 02 	call	0x518	; 0x518 <fputc>
 4e2:	6a 94       	dec	r6
 4e4:	bc cf       	rjmp	.-136    	; 0x45e <.L75>

000004e6 <.L81>:
 4e6:	8f ef       	ldi	r24, 0xFF	; 255
 4e8:	9f ef       	ldi	r25, 0xFF	; 255
 4ea:	52 cf       	rjmp	.-348    	; 0x390 <.L1>

000004ec <strnlen_P>:
 4ec:	fc 01       	movw	r30, r24

000004ee <.L_strnlen_P_loop>:
 4ee:	05 90       	lpm	r0, Z+
 4f0:	61 50       	subi	r22, 0x01	; 1
 4f2:	70 40       	sbci	r23, 0x00	; 0
 4f4:	01 10       	cpse	r0, r1
 4f6:	d8 f7       	brcc	.-10     	; 0x4ee <.L_strnlen_P_loop>
 4f8:	80 95       	com	r24
 4fa:	90 95       	com	r25
 4fc:	8e 0f       	add	r24, r30
 4fe:	9f 1f       	adc	r25, r31
 500:	08 95       	ret

00000502 <strnlen>:
 502:	fc 01       	movw	r30, r24

00000504 <.L_strnlen_loop>:
 504:	61 50       	subi	r22, 0x01	; 1
 506:	70 40       	sbci	r23, 0x00	; 0
 508:	01 90       	ld	r0, Z+
 50a:	01 10       	cpse	r0, r1
 50c:	d8 f7       	brcc	.-10     	; 0x504 <.L_strnlen_loop>
 50e:	80 95       	com	r24
 510:	90 95       	com	r25
 512:	8e 0f       	add	r24, r30
 514:	9f 1f       	adc	r25, r31
 516:	08 95       	ret

00000518 <fputc>:
 518:	0f 93       	push	r16
 51a:	1f 93       	push	r17
 51c:	cf 93       	push	r28
 51e:	df 93       	push	r29
 520:	18 2f       	mov	r17, r24
 522:	09 2f       	mov	r16, r25
 524:	eb 01       	movw	r28, r22
 526:	8b 81       	ldd	r24, Y+3	; 0x03
 528:	81 fd       	sbrc	r24, 1
 52a:	09 c0       	rjmp	.+18     	; 0x53e <.L2>

0000052c <.L7>:
 52c:	1f ef       	ldi	r17, 0xFF	; 255
 52e:	0f ef       	ldi	r16, 0xFF	; 255

00000530 <.L3>:
 530:	81 2f       	mov	r24, r17
 532:	90 2f       	mov	r25, r16
 534:	df 91       	pop	r29
 536:	cf 91       	pop	r28
 538:	1f 91       	pop	r17
 53a:	0f 91       	pop	r16
 53c:	08 95       	ret

0000053e <.L2>:
 53e:	82 ff       	sbrs	r24, 2
 540:	14 c0       	rjmp	.+40     	; 0x56a <.L4>
 542:	2e 81       	ldd	r18, Y+6	; 0x06
 544:	3f 81       	ldd	r19, Y+7	; 0x07
 546:	8c 81       	ldd	r24, Y+4	; 0x04
 548:	9d 81       	ldd	r25, Y+5	; 0x05
 54a:	28 17       	cp	r18, r24
 54c:	39 07       	cpc	r19, r25
 54e:	3c f4       	brge	.+14     	; 0x55e <.L8>
 550:	e8 81       	ld	r30, Y
 552:	f9 81       	ldd	r31, Y+1	; 0x01
 554:	cf 01       	movw	r24, r30
 556:	01 96       	adiw	r24, 0x01	; 1
 558:	99 83       	std	Y+1, r25	; 0x01
 55a:	88 83       	st	Y, r24
 55c:	10 83       	st	Z, r17

0000055e <.L8>:
 55e:	8e 81       	ldd	r24, Y+6	; 0x06
 560:	9f 81       	ldd	r25, Y+7	; 0x07
 562:	01 96       	adiw	r24, 0x01	; 1
 564:	9f 83       	std	Y+7, r25	; 0x07
 566:	8e 83       	std	Y+6, r24	; 0x06
 568:	e3 cf       	rjmp	.-58     	; 0x530 <.L3>

0000056a <.L4>:
 56a:	e8 85       	ldd	r30, Y+8	; 0x08
 56c:	f9 85       	ldd	r31, Y+9	; 0x09
 56e:	81 2f       	mov	r24, r17
 570:	09 95       	icall
 572:	89 2b       	or	r24, r25
 574:	a1 f3       	breq	.-24     	; 0x55e <.L8>
 576:	da cf       	rjmp	.-76     	; 0x52c <.L7>

00000578 <__ultoa_invert>:
 578:	fa 01       	movw	r30, r20
 57a:	aa 27       	eor	r26, r26
 57c:	28 30       	cpi	r18, 0x08	; 8
 57e:	51 f1       	breq	.+84     	; 0x5d4 <.L_oct>
 580:	20 31       	cpi	r18, 0x10	; 16
 582:	81 f1       	breq	.+96     	; 0x5e4 <.L_hex>
 584:	e8 94       	clt

00000586 <.L_dec_loop>:
 586:	6f 93       	push	r22
 588:	6e 7f       	andi	r22, 0xFE	; 254
 58a:	6e 5f       	subi	r22, 0xFE	; 254
 58c:	7f 4f       	sbci	r23, 0xFF	; 255
 58e:	8f 4f       	sbci	r24, 0xFF	; 255
 590:	9f 4f       	sbci	r25, 0xFF	; 255
 592:	af 4f       	sbci	r26, 0xFF	; 255
 594:	b1 e0       	ldi	r27, 0x01	; 1
 596:	3e d0       	rcall	.+124    	; 0x614 <.L_div_add>
 598:	b4 e0       	ldi	r27, 0x04	; 4
 59a:	3c d0       	rcall	.+120    	; 0x614 <.L_div_add>
 59c:	67 0f       	add	r22, r23
 59e:	78 1f       	adc	r23, r24
 5a0:	89 1f       	adc	r24, r25
 5a2:	9a 1f       	adc	r25, r26
 5a4:	a1 1d       	adc	r26, r1
 5a6:	68 0f       	add	r22, r24
 5a8:	79 1f       	adc	r23, r25
 5aa:	8a 1f       	adc	r24, r26
 5ac:	91 1d       	adc	r25, r1
 5ae:	a1 1d       	adc	r26, r1
 5b0:	6a 0f       	add	r22, r26
 5b2:	71 1d       	adc	r23, r1
 5b4:	81 1d       	adc	r24, r1
 5b6:	91 1d       	adc	r25, r1
 5b8:	a1 1d       	adc	r26, r1
 5ba:	20 d0       	rcall	.+64     	; 0x5fc <.L_lsr_4>
 5bc:	09 f4       	brne	.+2      	; 0x5c0 <.L1^B1>
 5be:	68 94       	set

000005c0 <.L1^B1>:
 5c0:	3f 91       	pop	r19
 5c2:	2a e0       	ldi	r18, 0x0A	; 10
 5c4:	26 9f       	mul	r18, r22
 5c6:	11 24       	eor	r1, r1
 5c8:	30 19       	sub	r19, r0
 5ca:	30 5d       	subi	r19, 0xD0	; 208
 5cc:	31 93       	st	Z+, r19
 5ce:	de f6       	brtc	.-74     	; 0x586 <.L_dec_loop>

000005d0 <.L_eos>:
 5d0:	cf 01       	movw	r24, r30
 5d2:	08 95       	ret

000005d4 <.L_oct>:
 5d4:	46 2f       	mov	r20, r22
 5d6:	47 70       	andi	r20, 0x07	; 7
 5d8:	40 5d       	subi	r20, 0xD0	; 208
 5da:	41 93       	st	Z+, r20
 5dc:	b3 e0       	ldi	r27, 0x03	; 3
 5de:	0f d0       	rcall	.+30     	; 0x5fe <.L_lsr>
 5e0:	c9 f7       	brne	.-14     	; 0x5d4 <.L_oct>
 5e2:	f6 cf       	rjmp	.-20     	; 0x5d0 <.L_eos>

000005e4 <.L_hex>:
 5e4:	46 2f       	mov	r20, r22
 5e6:	4f 70       	andi	r20, 0x0F	; 15
 5e8:	40 5d       	subi	r20, 0xD0	; 208
 5ea:	4a 33       	cpi	r20, 0x3A	; 58
 5ec:	18 f0       	brcs	.+6      	; 0x5f4 <.L3^B1>
 5ee:	49 5d       	subi	r20, 0xD9	; 217
 5f0:	31 fd       	sbrc	r19, 1
 5f2:	40 52       	subi	r20, 0x20	; 32

000005f4 <.L3^B1>:
 5f4:	41 93       	st	Z+, r20
 5f6:	02 d0       	rcall	.+4      	; 0x5fc <.L_lsr_4>
 5f8:	a9 f7       	brne	.-22     	; 0x5e4 <.L_hex>
 5fa:	ea cf       	rjmp	.-44     	; 0x5d0 <.L_eos>

000005fc <.L_lsr_4>:
 5fc:	b4 e0       	ldi	r27, 0x04	; 4

000005fe <.L_lsr>:
 5fe:	a6 95       	lsr	r26
 600:	97 95       	ror	r25
 602:	87 95       	ror	r24
 604:	77 95       	ror	r23
 606:	67 95       	ror	r22
 608:	ba 95       	dec	r27
 60a:	c9 f7       	brne	.-14     	; 0x5fe <.L_lsr>
 60c:	00 97       	sbiw	r24, 0x00	; 0
 60e:	61 05       	cpc	r22, r1
 610:	71 05       	cpc	r23, r1
 612:	08 95       	ret

00000614 <.L_div_add>:
 614:	9b 01       	movw	r18, r22
 616:	ac 01       	movw	r20, r24
 618:	0a 2e       	mov	r0, r26

0000061a <.L7^B1>:
 61a:	06 94       	lsr	r0
 61c:	57 95       	ror	r21
 61e:	47 95       	ror	r20
 620:	37 95       	ror	r19
 622:	27 95       	ror	r18
 624:	ba 95       	dec	r27
 626:	c9 f7       	brne	.-14     	; 0x61a <.L7^B1>
 628:	62 0f       	add	r22, r18
 62a:	73 1f       	adc	r23, r19
 62c:	84 1f       	adc	r24, r20
 62e:	95 1f       	adc	r25, r21
 630:	a0 1d       	adc	r26, r0
 632:	08 95       	ret

00000634 <__prologue_saves__>:
 634:	2f 92       	push	r2

00000636 <.Loc.1>:
 636:	3f 92       	push	r3

00000638 <.Loc.2>:
 638:	4f 92       	push	r4

0000063a <.Loc.3>:
 63a:	5f 92       	push	r5

0000063c <.Loc.4>:
 63c:	6f 92       	push	r6

0000063e <.Loc.5>:
 63e:	7f 92       	push	r7

00000640 <.Loc.6>:
 640:	8f 92       	push	r8

00000642 <.Loc.7>:
 642:	9f 92       	push	r9

00000644 <.Loc.8>:
 644:	af 92       	push	r10

00000646 <.Loc.9>:
 646:	bf 92       	push	r11

00000648 <.Loc.10>:
 648:	cf 92       	push	r12

0000064a <.Loc.11>:
 64a:	df 92       	push	r13

0000064c <.Loc.12>:
 64c:	ef 92       	push	r14

0000064e <.Loc.13>:
 64e:	ff 92       	push	r15

00000650 <.Loc.14>:
 650:	0f 93       	push	r16

00000652 <.Loc.15>:
 652:	1f 93       	push	r17

00000654 <.Loc.16>:
 654:	cf 93       	push	r28

00000656 <.Loc.17>:
 656:	df 93       	push	r29

00000658 <.Loc.18>:
 658:	cd b7       	in	r28, 0x3d	; 61

0000065a <.Loc.19>:
 65a:	de b7       	in	r29, 0x3e	; 62

0000065c <.Loc.20>:
 65c:	ca 1b       	sub	r28, r26

0000065e <.Loc.21>:
 65e:	db 0b       	sbc	r29, r27

00000660 <.Loc.22>:
 660:	0f b6       	in	r0, 0x3f	; 63

00000662 <.Loc.23>:
 662:	f8 94       	cli

00000664 <.Loc.24>:
 664:	de bf       	out	0x3e, r29	; 62

00000666 <.Loc.25>:
 666:	0f be       	out	0x3f, r0	; 63

00000668 <.Loc.26>:
 668:	cd bf       	out	0x3d, r28	; 61

0000066a <.Loc.27>:
 66a:	09 94       	ijmp

0000066c <__epilogue_restores__>:
 66c:	2a 88       	ldd	r2, Y+18	; 0x12

0000066e <.Loc.1>:
 66e:	39 88       	ldd	r3, Y+17	; 0x11

00000670 <.Loc.2>:
 670:	48 88       	ldd	r4, Y+16	; 0x10

00000672 <.Loc.3>:
 672:	5f 84       	ldd	r5, Y+15	; 0x0f

00000674 <.Loc.4>:
 674:	6e 84       	ldd	r6, Y+14	; 0x0e

00000676 <.Loc.5>:
 676:	7d 84       	ldd	r7, Y+13	; 0x0d

00000678 <.Loc.6>:
 678:	8c 84       	ldd	r8, Y+12	; 0x0c

0000067a <.Loc.7>:
 67a:	9b 84       	ldd	r9, Y+11	; 0x0b

0000067c <.Loc.8>:
 67c:	aa 84       	ldd	r10, Y+10	; 0x0a

0000067e <.Loc.9>:
 67e:	b9 84       	ldd	r11, Y+9	; 0x09

00000680 <.Loc.10>:
 680:	c8 84       	ldd	r12, Y+8	; 0x08

00000682 <.Loc.11>:
 682:	df 80       	ldd	r13, Y+7	; 0x07

00000684 <.Loc.12>:
 684:	ee 80       	ldd	r14, Y+6	; 0x06

00000686 <.Loc.13>:
 686:	fd 80       	ldd	r15, Y+5	; 0x05

00000688 <.Loc.14>:
 688:	0c 81       	ldd	r16, Y+4	; 0x04

0000068a <.Loc.15>:
 68a:	1b 81       	ldd	r17, Y+3	; 0x03

0000068c <.Loc.16>:
 68c:	aa 81       	ldd	r26, Y+2	; 0x02

0000068e <.Loc.17>:
 68e:	b9 81       	ldd	r27, Y+1	; 0x01

00000690 <.Loc.18>:
 690:	ce 0f       	add	r28, r30

00000692 <.Loc.19>:
 692:	d1 1d       	adc	r29, r1

00000694 <.Loc.20>:
 694:	0f b6       	in	r0, 0x3f	; 63

00000696 <.Loc.21>:
 696:	f8 94       	cli

00000698 <.Loc.22>:
 698:	de bf       	out	0x3e, r29	; 62

0000069a <.Loc.23>:
 69a:	0f be       	out	0x3f, r0	; 63

0000069c <.Loc.24>:
 69c:	cd bf       	out	0x3d, r28	; 61

0000069e <.Loc.25>:
 69e:	ed 01       	movw	r28, r26

000006a0 <.Loc.26>:
 6a0:	08 95       	ret

000006a2 <_exit>:
 6a2:	f8 94       	cli

000006a4 <__stop_program>:
 6a4:	ff cf       	rjmp	.-2      	; 0x6a4 <__stop_program>
